target datalayout = "e-m:e-p270:32:32-p271:32:32-p272:64:64-i64:64-i128:128-f80:128-n8:16:32:64-S128"
target triple = "x86_64-pc-linux-gnu"

; Function Attrs: inlinehint nounwind uwtable
define internal zeroext i8 @clip_8b(i32 noundef %0) #4 {
  %2 = alloca i32, align 4
  store i32 %0, ptr %2, align 4, !tbaa !9
  %3 = load i32, ptr %2, align 4, !tbaa !9
  %4 = and i32 %3, -256
  %5 = icmp ne i32 %4, 0
  br i1 %5, label %8, label %6

6:                                                ; preds = %1
  %7 = load i32, ptr %2, align 4, !tbaa !9
  br label %12

8:                                                ; preds = %1
  %9 = load i32, ptr %2, align 4, !tbaa !9
  %10 = icmp slt i32 %9, 0
  %11 = select i1 %10, i32 0, i32 255
  br label %12

12:                                               ; preds = %8, %6
  %13 = phi i32 [ %7, %6 ], [ %11, %8 ]
  %14 = trunc i32 %13 to i8
  ret i8 %14
}

; Function Attrs: nounwind uwtable
define internal void @TransformOne_C(ptr noalias noundef %0, ptr noalias noundef %1) #0 {
  %3 = alloca ptr, align 8
  %4 = alloca ptr, align 8
  %5 = alloca [16 x i32], align 16
  %6 = alloca ptr, align 8
  %7 = alloca i32, align 4
  %8 = alloca i32, align 4
  %9 = alloca i32, align 4
  %10 = alloca i32, align 4
  %11 = alloca i32, align 4
  %12 = alloca i32, align 4
  %13 = alloca i32, align 4
  %14 = alloca i32, align 4
  %15 = alloca i32, align 4
  %16 = alloca i32, align 4
  store ptr %0, ptr %3, align 8, !tbaa !7
  store ptr %1, ptr %4, align 8, !tbaa !16
  call void @llvm.lifetime.start.p0(i64 64, ptr %5) #7
  call void @llvm.lifetime.start.p0(i64 8, ptr %6) #7
  call void @llvm.lifetime.start.p0(i64 4, ptr %7) #7
  %17 = getelementptr inbounds [16 x i32], ptr %5, i64 0, i64 0
  store ptr %17, ptr %6, align 8, !tbaa !42
  store i32 0, ptr %7, align 4, !tbaa !9
  br label %18

18:                                               ; preds = %100, %2
  %19 = load i32, ptr %7, align 4, !tbaa !9
  %20 = icmp slt i32 %19, 4
  br i1 %20, label %21, label %103

21:                                               ; preds = %18
  call void @llvm.lifetime.start.p0(i64 4, ptr %8) #7
  %22 = load ptr, ptr %3, align 8, !tbaa !7
  %23 = getelementptr inbounds i16, ptr %22, i64 0
  %24 = load i16, ptr %23, align 2, !tbaa !11
  %25 = sext i16 %24 to i32
  %26 = load ptr, ptr %3, align 8, !tbaa !7
  %27 = getelementptr inbounds i16, ptr %26, i64 8
  %28 = load i16, ptr %27, align 2, !tbaa !11
  %29 = sext i16 %28 to i32
  %30 = add nsw i32 %25, %29
  store i32 %30, ptr %8, align 4, !tbaa !9
  call void @llvm.lifetime.start.p0(i64 4, ptr %9) #7
  %31 = load ptr, ptr %3, align 8, !tbaa !7
  %32 = getelementptr inbounds i16, ptr %31, i64 0
  %33 = load i16, ptr %32, align 2, !tbaa !11
  %34 = sext i16 %33 to i32
  %35 = load ptr, ptr %3, align 8, !tbaa !7
  %36 = getelementptr inbounds i16, ptr %35, i64 8
  %37 = load i16, ptr %36, align 2, !tbaa !11
  %38 = sext i16 %37 to i32
  %39 = sub nsw i32 %34, %38
  store i32 %39, ptr %9, align 4, !tbaa !9
  call void @llvm.lifetime.start.p0(i64 4, ptr %10) #7
  %40 = load ptr, ptr %3, align 8, !tbaa !7
  %41 = getelementptr inbounds i16, ptr %40, i64 4
  %42 = load i16, ptr %41, align 2, !tbaa !11
  %43 = sext i16 %42 to i32
  %44 = mul nsw i32 %43, 35468
  %45 = ashr i32 %44, 16
  %46 = load ptr, ptr %3, align 8, !tbaa !7
  %47 = getelementptr inbounds i16, ptr %46, i64 12
  %48 = load i16, ptr %47, align 2, !tbaa !11
  %49 = sext i16 %48 to i32
  %50 = mul nsw i32 %49, 20091
  %51 = ashr i32 %50, 16
  %52 = load ptr, ptr %3, align 8, !tbaa !7
  %53 = getelementptr inbounds i16, ptr %52, i64 12
  %54 = load i16, ptr %53, align 2, !tbaa !11
  %55 = sext i16 %54 to i32
  %56 = add nsw i32 %51, %55
  %57 = sub nsw i32 %45, %56
  store i32 %57, ptr %10, align 4, !tbaa !9
  call void @llvm.lifetime.start.p0(i64 4, ptr %11) #7
  %58 = load ptr, ptr %3, align 8, !tbaa !7
  %59 = getelementptr inbounds i16, ptr %58, i64 4
  %60 = load i16, ptr %59, align 2, !tbaa !11
  %61 = sext i16 %60 to i32
  %62 = mul nsw i32 %61, 20091
  %63 = ashr i32 %62, 16
  %64 = load ptr, ptr %3, align 8, !tbaa !7
  %65 = getelementptr inbounds i16, ptr %64, i64 4
  %66 = load i16, ptr %65, align 2, !tbaa !11
  %67 = sext i16 %66 to i32
  %68 = add nsw i32 %63, %67
  %69 = load ptr, ptr %3, align 8, !tbaa !7
  %70 = getelementptr inbounds i16, ptr %69, i64 12
  %71 = load i16, ptr %70, align 2, !tbaa !11
  %72 = sext i16 %71 to i32
  %73 = mul nsw i32 %72, 35468
  %74 = ashr i32 %73, 16
  %75 = add nsw i32 %68, %74
  store i32 %75, ptr %11, align 4, !tbaa !9
  %76 = load i32, ptr %8, align 4, !tbaa !9
  %77 = load i32, ptr %11, align 4, !tbaa !9
  %78 = add nsw i32 %76, %77
  %79 = load ptr, ptr %6, align 8, !tbaa !42
  %80 = getelementptr inbounds i32, ptr %79, i64 0
  store i32 %78, ptr %80, align 4, !tbaa !9
  %81 = load i32, ptr %9, align 4, !tbaa !9
  %82 = load i32, ptr %10, align 4, !tbaa !9
  %83 = add nsw i32 %81, %82
  %84 = load ptr, ptr %6, align 8, !tbaa !42
  %85 = getelementptr inbounds i32, ptr %84, i64 1
  store i32 %83, ptr %85, align 4, !tbaa !9
  %86 = load i32, ptr %9, align 4, !tbaa !9
  %87 = load i32, ptr %10, align 4, !tbaa !9
  %88 = sub nsw i32 %86, %87
  %89 = load ptr, ptr %6, align 8, !tbaa !42
  %90 = getelementptr inbounds i32, ptr %89, i64 2
  store i32 %88, ptr %90, align 4, !tbaa !9
  %91 = load i32, ptr %8, align 4, !tbaa !9
  %92 = load i32, ptr %11, align 4, !tbaa !9
  %93 = sub nsw i32 %91, %92
  %94 = load ptr, ptr %6, align 8, !tbaa !42
  %95 = getelementptr inbounds i32, ptr %94, i64 3
  store i32 %93, ptr %95, align 4, !tbaa !9
  %96 = load ptr, ptr %6, align 8, !tbaa !42
  %97 = getelementptr inbounds i32, ptr %96, i64 4
  store ptr %97, ptr %6, align 8, !tbaa !42
  %98 = load ptr, ptr %3, align 8, !tbaa !7
  %99 = getelementptr inbounds nuw i16, ptr %98, i32 1
  store ptr %99, ptr %3, align 8, !tbaa !7
  call void @llvm.lifetime.end.p0(i64 4, ptr %11) #7
  call void @llvm.lifetime.end.p0(i64 4, ptr %10) #7
  call void @llvm.lifetime.end.p0(i64 4, ptr %9) #7
  call void @llvm.lifetime.end.p0(i64 4, ptr %8) #7
  br label %100

100:                                              ; preds = %21
  %101 = load i32, ptr %7, align 4, !tbaa !9
  %102 = add nsw i32 %101, 1
  store i32 %102, ptr %7, align 4, !tbaa !9
  br label %18, !llvm.loop !44

103:                                              ; preds = %18
  %104 = getelementptr inbounds [16 x i32], ptr %5, i64 0, i64 0
  store ptr %104, ptr %6, align 8, !tbaa !42
  store i32 0, ptr %7, align 4, !tbaa !9
  br label %105

105:                                              ; preds = %205, %103
  %106 = load i32, ptr %7, align 4, !tbaa !9
  %107 = icmp slt i32 %106, 4
  br i1 %107, label %108, label %208

108:                                              ; preds = %105
  call void @llvm.lifetime.start.p0(i64 4, ptr %12) #7
  %109 = load ptr, ptr %6, align 8, !tbaa !42
  %110 = getelementptr inbounds i32, ptr %109, i64 0
  %111 = load i32, ptr %110, align 4, !tbaa !9
  %112 = add nsw i32 %111, 4
  store i32 %112, ptr %12, align 4, !tbaa !9
  call void @llvm.lifetime.start.p0(i64 4, ptr %13) #7
  %113 = load i32, ptr %12, align 4, !tbaa !9
  %114 = load ptr, ptr %6, align 8, !tbaa !42
  %115 = getelementptr inbounds i32, ptr %114, i64 8
  %116 = load i32, ptr %115, align 4, !tbaa !9
  %117 = add nsw i32 %113, %116
  store i32 %117, ptr %13, align 4, !tbaa !9
  call void @llvm.lifetime.start.p0(i64 4, ptr %14) #7
  %118 = load i32, ptr %12, align 4, !tbaa !9
  %119 = load ptr, ptr %6, align 8, !tbaa !42
  %120 = getelementptr inbounds i32, ptr %119, i64 8
  %121 = load i32, ptr %120, align 4, !tbaa !9
  %122 = sub nsw i32 %118, %121
  store i32 %122, ptr %14, align 4, !tbaa !9
  call void @llvm.lifetime.start.p0(i64 4, ptr %15) #7
  %123 = load ptr, ptr %6, align 8, !tbaa !42
  %124 = getelementptr inbounds i32, ptr %123, i64 4
  %125 = load i32, ptr %124, align 4, !tbaa !9
  %126 = mul nsw i32 %125, 35468
  %127 = ashr i32 %126, 16
  %128 = load ptr, ptr %6, align 8, !tbaa !42
  %129 = getelementptr inbounds i32, ptr %128, i64 12
  %130 = load i32, ptr %129, align 4, !tbaa !9
  %131 = mul nsw i32 %130, 20091
  %132 = ashr i32 %131, 16
  %133 = load ptr, ptr %6, align 8, !tbaa !42
  %134 = getelementptr inbounds i32, ptr %133, i64 12
  %135 = load i32, ptr %134, align 4, !tbaa !9
  %136 = add nsw i32 %132, %135
  %137 = sub nsw i32 %127, %136
  store i32 %137, ptr %15, align 4, !tbaa !9
  call void @llvm.lifetime.start.p0(i64 4, ptr %16) #7
  %138 = load ptr, ptr %6, align 8, !tbaa !42
  %139 = getelementptr inbounds i32, ptr %138, i64 4
  %140 = load i32, ptr %139, align 4, !tbaa !9
  %141 = mul nsw i32 %140, 20091
  %142 = ashr i32 %141, 16
  %143 = load ptr, ptr %6, align 8, !tbaa !42
  %144 = getelementptr inbounds i32, ptr %143, i64 4
  %145 = load i32, ptr %144, align 4, !tbaa !9
  %146 = add nsw i32 %142, %145
  %147 = load ptr, ptr %6, align 8, !tbaa !42
  %148 = getelementptr inbounds i32, ptr %147, i64 12
  %149 = load i32, ptr %148, align 4, !tbaa !9
  %150 = mul nsw i32 %149, 35468
  %151 = ashr i32 %150, 16
  %152 = add nsw i32 %146, %151
  store i32 %152, ptr %16, align 4, !tbaa !9
  %153 = load ptr, ptr %4, align 8, !tbaa !16
  %154 = getelementptr inbounds i8, ptr %153, i64 0
  %155 = load i8, ptr %154, align 1, !tbaa !18
  %156 = zext i8 %155 to i32
  %157 = load i32, ptr %13, align 4, !tbaa !9
  %158 = load i32, ptr %16, align 4, !tbaa !9
  %159 = add nsw i32 %157, %158
  %160 = ashr i32 %159, 3
  %161 = add nsw i32 %156, %160
  %162 = call zeroext i8 @clip_8b(i32 noundef %161)
  %163 = load ptr, ptr %4, align 8, !tbaa !16
  %164 = getelementptr inbounds i8, ptr %163, i64 0
  store i8 %162, ptr %164, align 1, !tbaa !18
  %165 = load ptr, ptr %4, align 8, !tbaa !16
  %166 = getelementptr inbounds i8, ptr %165, i64 1
  %167 = load i8, ptr %166, align 1, !tbaa !18
  %168 = zext i8 %167 to i32
  %169 = load i32, ptr %14, align 4, !tbaa !9
  %170 = load i32, ptr %15, align 4, !tbaa !9
  %171 = add nsw i32 %169, %170
  %172 = ashr i32 %171, 3
  %173 = add nsw i32 %168, %172
  %174 = call zeroext i8 @clip_8b(i32 noundef %173)
  %175 = load ptr, ptr %4, align 8, !tbaa !16
  %176 = getelementptr inbounds i8, ptr %175, i64 1
  store i8 %174, ptr %176, align 1, !tbaa !18
  %177 = load ptr, ptr %4, align 8, !tbaa !16
  %178 = getelementptr inbounds i8, ptr %177, i64 2
  %179 = load i8, ptr %178, align 1, !tbaa !18
  %180 = zext i8 %179 to i32
  %181 = load i32, ptr %14, align 4, !tbaa !9
  %182 = load i32, ptr %15, align 4, !tbaa !9
  %183 = sub nsw i32 %181, %182
  %184 = ashr i32 %183, 3
  %185 = add nsw i32 %180, %184
  %186 = call zeroext i8 @clip_8b(i32 noundef %185)
  %187 = load ptr, ptr %4, align 8, !tbaa !16
  %188 = getelementptr inbounds i8, ptr %187, i64 2
  store i8 %186, ptr %188, align 1, !tbaa !18
  %189 = load ptr, ptr %4, align 8, !tbaa !16
  %190 = getelementptr inbounds i8, ptr %189, i64 3
  %191 = load i8, ptr %190, align 1, !tbaa !18
  %192 = zext i8 %191 to i32
  %193 = load i32, ptr %13, align 4, !tbaa !9
  %194 = load i32, ptr %16, align 4, !tbaa !9
  %195 = sub nsw i32 %193, %194
  %196 = ashr i32 %195, 3
  %197 = add nsw i32 %192, %196
  %198 = call zeroext i8 @clip_8b(i32 noundef %197)
  %199 = load ptr, ptr %4, align 8, !tbaa !16
  %200 = getelementptr inbounds i8, ptr %199, i64 3
  store i8 %198, ptr %200, align 1, !tbaa !18
  %201 = load ptr, ptr %6, align 8, !tbaa !42
  %202 = getelementptr inbounds nuw i32, ptr %201, i32 1
  store ptr %202, ptr %6, align 8, !tbaa !42
  %203 = load ptr, ptr %4, align 8, !tbaa !16
  %204 = getelementptr inbounds i8, ptr %203, i64 32
  store ptr %204, ptr %4, align 8, !tbaa !16
  call void @llvm.lifetime.end.p0(i64 4, ptr %16) #7
  call void @llvm.lifetime.end.p0(i64 4, ptr %15) #7
  call void @llvm.lifetime.end.p0(i64 4, ptr %14) #7
  call void @llvm.lifetime.end.p0(i64 4, ptr %13) #7
  call void @llvm.lifetime.end.p0(i64 4, ptr %12) #7
  br label %205

205:                                              ; preds = %108
  %206 = load i32, ptr %7, align 4, !tbaa !9
  %207 = add nsw i32 %206, 1
  store i32 %207, ptr %7, align 4, !tbaa !9
  br label %105, !llvm.loop !45

208:                                              ; preds = %105
  call void @llvm.lifetime.end.p0(i64 4, ptr %7) #7
  call void @llvm.lifetime.end.p0(i64 8, ptr %6) #7
  call void @llvm.lifetime.end.p0(i64 64, ptr %5) #7
  ret void
}