; Function Attrs: nofree norecurse nosync nounwind memory(argmem: readwrite) uwtable
define internal fastcc void @TransformOne_C(ptr noalias noundef readonly captures(none) %0, ptr noalias noundef captures(none) %1) unnamed_addr #3 {
  %3 = alloca [16 x i32], align 16
  call void @llvm.lifetime.start.p0(i64 64, ptr nonnull %3) #12
  br label %4

4:                                                ; preds = %2, %4
  %.067 = phi ptr [ %0, %2 ], [ %38, %4 ]
  %.05766 = phi ptr [ %3, %2 ], [ %37, %4 ]
  %.05865 = phi i32 [ 0, %2 ], [ %39, %4 ]
  %5 = load i16, ptr %.067, align 2, !tbaa !7
  %6 = sext i16 %5 to i32
  %7 = getelementptr inbounds nuw i8, ptr %.067, i64 16
  %8 = load i16, ptr %7, align 2, !tbaa !7
  %9 = sext i16 %8 to i32
  %10 = add nsw i32 %9, %6
  %11 = sub nsw i32 %6, %9
  %12 = getelementptr inbounds nuw i8, ptr %.067, i64 8
  %13 = load i16, ptr %12, align 2, !tbaa !7
  %14 = sext i16 %13 to i32
  %15 = mul nsw i32 %14, 35468
  %16 = ashr i32 %15, 16
  %17 = getelementptr inbounds nuw i8, ptr %.067, i64 24
  %18 = load i16, ptr %17, align 2, !tbaa !7
  %19 = sext i16 %18 to i32
  %20 = mul nsw i32 %19, 20091
  %21 = ashr i32 %20, 16
  %22 = add nsw i32 %21, %19
  %23 = sub nsw i32 %16, %22
  %24 = mul nsw i32 %14, 20091
  %25 = ashr i32 %24, 16
  %26 = add nsw i32 %25, %14
  %27 = mul nsw i32 %19, 35468
  %28 = ashr i32 %27, 16
  %29 = add nsw i32 %26, %28
  %30 = add nsw i32 %29, %10
  store i32 %30, ptr %.05766, align 4, !tbaa !9
  %31 = add nsw i32 %23, %11
  %32 = getelementptr inbounds nuw i8, ptr %.05766, i64 4
  store i32 %31, ptr %32, align 4, !tbaa !9
  %33 = sub nsw i32 %11, %23
  %34 = getelementptr inbounds nuw i8, ptr %.05766, i64 8
  store i32 %33, ptr %34, align 4, !tbaa !9
  %35 = sub nsw i32 %10, %29
  %36 = getelementptr inbounds nuw i8, ptr %.05766, i64 12
  store i32 %35, ptr %36, align 4, !tbaa !9
  %37 = getelementptr inbounds nuw i8, ptr %.05766, i64 16
  %38 = getelementptr inbounds nuw i8, ptr %.067, i64 2
  %39 = add nuw nsw i32 %.05865, 1
  %exitcond.not = icmp eq i32 %39, 4
  br i1 %exitcond.not, label %.preheader, label %4, !llvm.loop !44

.preheader:                                       ; preds = %4, %.preheader
  %.05670 = phi ptr [ %98, %.preheader ], [ %1, %4 ]
  %.169 = phi ptr [ %97, %.preheader ], [ %3, %4 ]
  %.15968 = phi i32 [ %99, %.preheader ], [ 0, %4 ]
  %40 = load i32, ptr %.169, align 4, !tbaa !9
  %41 = add nsw i32 %40, 4
  %42 = getelementptr inbounds nuw i8, ptr %.169, i64 32
  %43 = load i32, ptr %42, align 4, !tbaa !9
  %44 = add nsw i32 %41, %43
  %45 = sub nsw i32 %41, %43
  %46 = getelementptr inbounds nuw i8, ptr %.169, i64 16
  %47 = load i32, ptr %46, align 4, !tbaa !9
  %48 = mul nsw i32 %47, 35468
  %49 = ashr i32 %48, 16
  %50 = getelementptr inbounds nuw i8, ptr %.169, i64 48
  %51 = load i32, ptr %50, align 4, !tbaa !9
  %52 = mul nsw i32 %51, 20091
  %53 = ashr i32 %52, 16
  %54 = add i32 %51, %53
  %55 = sub i32 %49, %54
  %56 = mul nsw i32 %47, 20091
  %57 = ashr i32 %56, 16
  %58 = add nsw i32 %57, %47
  %59 = mul nsw i32 %51, 35468
  %60 = ashr i32 %59, 16
  %61 = add nsw i32 %58, %60
  %62 = load i8, ptr %.05670, align 1, !tbaa !14
  %63 = zext i8 %62 to i32
  %64 = add nsw i32 %61, %44
  %65 = ashr i32 %64, 3
  %66 = add nsw i32 %65, %63
  %67 = tail call i32 @llvm.smax.i32(i32 range(i32 -268435456, 268435711) %66, i32 0)
  %68 = tail call i32 @llvm.umin.i32(i32 %67, i32 255)
  %69 = trunc nuw i32 %68 to i8
  store i8 %69, ptr %.05670, align 1, !tbaa !14
  %70 = getelementptr inbounds nuw i8, ptr %.05670, i64 1
  %71 = load i8, ptr %70, align 1, !tbaa !14
  %72 = zext i8 %71 to i32
  %73 = add nsw i32 %55, %45
  %74 = ashr i32 %73, 3
  %75 = add nsw i32 %74, %72
  %76 = tail call i32 @llvm.smax.i32(i32 range(i32 -268435456, 268435711) %75, i32 0)
  %77 = tail call i32 @llvm.umin.i32(i32 %76, i32 255)
  %78 = trunc nuw i32 %77 to i8
  store i8 %78, ptr %70, align 1, !tbaa !14
  %79 = getelementptr inbounds nuw i8, ptr %.05670, i64 2
  %80 = load i8, ptr %79, align 1, !tbaa !14
  %81 = zext i8 %80 to i32
  %82 = sub nsw i32 %45, %55
  %83 = ashr i32 %82, 3
  %84 = add nsw i32 %83, %81
  %85 = tail call i32 @llvm.smax.i32(i32 range(i32 -268435456, 268435711) %84, i32 0)
  %86 = tail call i32 @llvm.umin.i32(i32 %85, i32 255)
  %87 = trunc nuw i32 %86 to i8
  store i8 %87, ptr %79, align 1, !tbaa !14
  %88 = getelementptr inbounds nuw i8, ptr %.05670, i64 3
  %89 = load i8, ptr %88, align 1, !tbaa !14
  %90 = zext i8 %89 to i32
  %91 = sub nsw i32 %44, %61
  %92 = ashr i32 %91, 3
  %93 = add nsw i32 %92, %90
  %94 = tail call i32 @llvm.smax.i32(i32 range(i32 -268435456, 268435711) %93, i32 0)
  %95 = tail call i32 @llvm.umin.i32(i32 %94, i32 255)
  %96 = trunc nuw i32 %95 to i8
  store i8 %96, ptr %88, align 1, !tbaa !14
  %97 = getelementptr inbounds nuw i8, ptr %.169, i64 4
  %98 = getelementptr inbounds nuw i8, ptr %.05670, i64 32
  %99 = add nuw nsw i32 %.15968, 1
  %exitcond71.not = icmp eq i32 %99, 4
  br i1 %exitcond71.not, label %100, label %.preheader, !llvm.loop !45

100:                                              ; preds = %.preheader
  call void @llvm.lifetime.end.p0(i64 64, ptr nonnull %3) #12
  ret void
}